target datalayout = "e-m:e-p270:32:32-p271:32:32-p272:64:64-i64:64-f80:128-n8:16:32:64-S128"
target triple = "x86_64-pc-linux-gnu"

%struct.book = type { i32, [26 x i8] }
%struct.author = type { [1000 x i32], i32 }

@.str = private unnamed_addr constant [3 x i8] c"%d\00", align 1
@.str.1 = private unnamed_addr constant [6 x i8] c"%d %s\00", align 1
@.str.2 = private unnamed_addr constant [4 x i8] c"%c\0A\00", align 1
@.str.3 = private unnamed_addr constant [4 x i8] c"%d\0A\00", align 1

; Function Attrs: noinline nounwind uwtable
define dso_local i32 @main() #0 {
  %1 = alloca i32, align 4
  %2 = alloca i32, align 4
  %3 = alloca i32, align 4
  %4 = alloca i32, align 4
  %5 = alloca i32, align 4
  %6 = alloca i32, align 4
  %7 = alloca i32, align 4
  %8 = alloca [26 x i32], align 16
  %9 = alloca [1000 x %struct.book], align 16
  %10 = alloca [26 x %struct.author], align 16
  store i32 0, i32* %1, align 4
  %11 = call i32 (i8*, ...) @__isoc99_scanf(i8* getelementptr inbounds ([3 x i8], [3 x i8]* @.str, i64 0, i64 0), i32* %2)
  store i32 0, i32* %3, align 4
  br label %12

12:                                               ; preds = %28, %0
  %13 = load i32, i32* %3, align 4
  %14 = load i32, i32* %2, align 4
  %15 = sub nsw i32 %14, 1
  %16 = icmp sle i32 %13, %15
  br i1 %16, label %17, label %31

17:                                               ; preds = %12
  %18 = load i32, i32* %3, align 4
  %19 = sext i32 %18 to i64
  %20 = getelementptr inbounds [1000 x %struct.book], [1000 x %struct.book]* %9, i64 0, i64 %19
  %21 = getelementptr inbounds %struct.book, %struct.book* %20, i32 0, i32 0
  %22 = load i32, i32* %3, align 4
  %23 = sext i32 %22 to i64
  %24 = getelementptr inbounds [1000 x %struct.book], [1000 x %struct.book]* %9, i64 0, i64 %23
  %25 = getelementptr inbounds %struct.book, %struct.book* %24, i32 0, i32 1
  %26 = getelementptr inbounds [26 x i8], [26 x i8]* %25, i64 0, i64 0
  %27 = call i32 (i8*, ...) @__isoc99_scanf(i8* getelementptr inbounds ([6 x i8], [6 x i8]* @.str.1, i64 0, i64 0), i32* %21, i8* %26)
  br label %28

28:                                               ; preds = %17
  %29 = load i32, i32* %3, align 4
  %30 = add nsw i32 %29, 1
  store i32 %30, i32* %3, align 4
  br label %12

31:                                               ; preds = %12
  store i32 0, i32* %3, align 4
  br label %32

32:                                               ; preds = %43, %31
  %33 = load i32, i32* %3, align 4
  %34 = icmp sle i32 %33, 25
  br i1 %34, label %35, label %46

35:                                               ; preds = %32
  %36 = load i32, i32* %3, align 4
  %37 = sext i32 %36 to i64
  %38 = getelementptr inbounds [26 x %struct.author], [26 x %struct.author]* %10, i64 0, i64 %37
  %39 = getelementptr inbounds %struct.author, %struct.author* %38, i32 0, i32 1
  store i32 0, i32* %39, align 4
  %40 = load i32, i32* %3, align 4
  %41 = sext i32 %40 to i64
  %42 = getelementptr inbounds [26 x i32], [26 x i32]* %8, i64 0, i64 %41
  store i32 0, i32* %42, align 4
  br label %43

43:                                               ; preds = %35
  %44 = load i32, i32* %3, align 4
  %45 = add nsw i32 %44, 1
  store i32 %45, i32* %3, align 4
  br label %32

46:                                               ; preds = %32
  store i32 0, i32* %3, align 4
  br label %47

47:                                               ; preds = %108, %46
  %48 = load i32, i32* %3, align 4
  %49 = load i32, i32* %2, align 4
  %50 = sub nsw i32 %49, 1
  %51 = icmp sle i32 %48, %50
  br i1 %51, label %52, label %111

52:                                               ; preds = %47
  store i32 0, i32* %4, align 4
  br label %53

53:                                               ; preds = %104, %52
  %54 = load i32, i32* %4, align 4
  %55 = sext i32 %54 to i64
  %56 = load i32, i32* %3, align 4
  %57 = sext i32 %56 to i64
  %58 = getelementptr inbounds [1000 x %struct.book], [1000 x %struct.book]* %9, i64 0, i64 %57
  %59 = getelementptr inbounds %struct.book, %struct.book* %58, i32 0, i32 1
  %60 = getelementptr inbounds [26 x i8], [26 x i8]* %59, i64 0, i64 0
  %61 = call i64 @strlen(i8* %60) #3
  %62 = sub i64 %61, 1
  %63 = icmp ule i64 %55, %62
  br i1 %63, label %64, label %107

64:                                               ; preds = %53
  %65 = load i32, i32* %3, align 4
  %66 = sext i32 %65 to i64
  %67 = getelementptr inbounds [1000 x %struct.book], [1000 x %struct.book]* %9, i64 0, i64 %66
  %68 = getelementptr inbounds %struct.book, %struct.book* %67, i32 0, i32 1
  %69 = load i32, i32* %4, align 4
  %70 = sext i32 %69 to i64
  %71 = getelementptr inbounds [26 x i8], [26 x i8]* %68, i64 0, i64 %70
  %72 = load i8, i8* %71, align 1
  %73 = sext i8 %72 to i32
  store i32 %73, i32* %5, align 4
  %74 = load i32, i32* %5, align 4
  %75 = sub nsw i32 %74, 65
  %76 = sext i32 %75 to i64
  %77 = getelementptr inbounds [26 x %struct.author], [26 x %struct.author]* %10, i64 0, i64 %76
  %78 = getelementptr inbounds %struct.author, %struct.author* %77, i32 0, i32 1
  %79 = load i32, i32* %78, align 4
  %80 = add nsw i32 %79, 1
  store i32 %80, i32* %78, align 4
  %81 = load i32, i32* %3, align 4
  %82 = sext i32 %81 to i64
  %83 = getelementptr inbounds [1000 x %struct.book], [1000 x %struct.book]* %9, i64 0, i64 %82
  %84 = getelementptr inbounds %struct.book, %struct.book* %83, i32 0, i32 0
  %85 = load i32, i32* %84, align 16
  %86 = load i32, i32* %5, align 4
  %87 = sub nsw i32 %86, 65
  %88 = sext i32 %87 to i64
  %89 = getelementptr inbounds [26 x %struct.author], [26 x %struct.author]* %10, i64 0, i64 %88
  %90 = getelementptr inbounds %struct.author, %struct.author* %89, i32 0, i32 0
  %91 = load i32, i32* %5, align 4
  %92 = sub nsw i32 %91, 65
  %93 = sext i32 %92 to i64
  %94 = getelementptr inbounds [26 x i32], [26 x i32]* %8, i64 0, i64 %93
  %95 = load i32, i32* %94, align 4
  %96 = sext i32 %95 to i64
  %97 = getelementptr inbounds [1000 x i32], [1000 x i32]* %90, i64 0, i64 %96
  store i32 %85, i32* %97, align 4
  %98 = load i32, i32* %5, align 4
  %99 = sub nsw i32 %98, 65
  %100 = sext i32 %99 to i64
  %101 = getelementptr inbounds [26 x i32], [26 x i32]* %8, i64 0, i64 %100
  %102 = load i32, i32* %101, align 4
  %103 = add nsw i32 %102, 1
  store i32 %103, i32* %101, align 4
  br label %104

104:                                              ; preds = %64
  %105 = load i32, i32* %4, align 4
  %106 = add nsw i32 %105, 1
  store i32 %106, i32* %4, align 4
  br label %53

107:                                              ; preds = %53
  br label %108

108:                                              ; preds = %107
  %109 = load i32, i32* %3, align 4
  %110 = add nsw i32 %109, 1
  store i32 %110, i32* %3, align 4
  br label %47

111:                                              ; preds = %47
  %112 = getelementptr inbounds [26 x %struct.author], [26 x %struct.author]* %10, i64 0, i64 0
  %113 = getelementptr inbounds %struct.author, %struct.author* %112, i32 0, i32 1
  %114 = load i32, i32* %113, align 16
  store i32 %114, i32* %6, align 4
  store i32 0, i32* %7, align 4
  store i32 1, i32* %3, align 4
  br label %115

115:                                              ; preds = %134, %111
  %116 = load i32, i32* %3, align 4
  %117 = icmp sle i32 %116, 25
  br i1 %117, label %118, label %137

118:                                              ; preds = %115
  %119 = load i32, i32* %3, align 4
  %120 = sext i32 %119 to i64
  %121 = getelementptr inbounds [26 x %struct.author], [26 x %struct.author]* %10, i64 0, i64 %120
  %122 = getelementptr inbounds %struct.author, %struct.author* %121, i32 0, i32 1
  %123 = load i32, i32* %122, align 4
  %124 = load i32, i32* %6, align 4
  %125 = icmp sgt i32 %123, %124
  br i1 %125, label %126, label %133

126:                                              ; preds = %118
  %127 = load i32, i32* %3, align 4
  %128 = sext i32 %127 to i64
  %129 = getelementptr inbounds [26 x %struct.author], [26 x %struct.author]* %10, i64 0, i64 %128
  %130 = getelementptr inbounds %struct.author, %struct.author* %129, i32 0, i32 1
  %131 = load i32, i32* %130, align 4
  store i32 %131, i32* %6, align 4
  %132 = load i32, i32* %3, align 4
  store i32 %132, i32* %7, align 4
  br label %133

133:                                              ; preds = %126, %118
  br label %134

134:                                              ; preds = %133
  %135 = load i32, i32* %3, align 4
  %136 = add nsw i32 %135, 1
  store i32 %136, i32* %3, align 4
  br label %115

137:                                              ; preds = %115
  %138 = load i32, i32* %7, align 4
  %139 = add nsw i32 %138, 65
  %140 = call i32 (i8*, ...) @printf(i8* getelementptr inbounds ([4 x i8], [4 x i8]* @.str.2, i64 0, i64 0), i32 %139)
  %141 = load i32, i32* %6, align 4
  %142 = call i32 (i8*, ...) @printf(i8* getelementptr inbounds ([4 x i8], [4 x i8]* @.str.3, i64 0, i64 0), i32 %141)
  store i32 0, i32* %4, align 4
  br label %143

143:                                              ; preds = %161, %137
  %144 = load i32, i32* %4, align 4
  %145 = load i32, i32* %7, align 4
  %146 = sext i32 %145 to i64
  %147 = getelementptr inbounds [26 x i32], [26 x i32]* %8, i64 0, i64 %146
  %148 = load i32, i32* %147, align 4
  %149 = sub nsw i32 %148, 1
  %150 = icmp sle i32 %144, %149
  br i1 %150, label %151, label %164

151:                                              ; preds = %143
  %152 = load i32, i32* %7, align 4
  %153 = sext i32 %152 to i64
  %154 = getelementptr inbounds [26 x %struct.author], [26 x %struct.author]* %10, i64 0, i64 %153
  %155 = getelementptr inbounds %struct.author, %struct.author* %154, i32 0, i32 0
  %156 = load i32, i32* %4, align 4
  %157 = sext i32 %156 to i64
  %158 = getelementptr inbounds [1000 x i32], [1000 x i32]* %155, i64 0, i64 %157
  %159 = load i32, i32* %158, align 4
  %160 = call i32 (i8*, ...) @printf(i8* getelementptr inbounds ([4 x i8], [4 x i8]* @.str.3, i64 0, i64 0), i32 %159)
  br label %161

161:                                              ; preds = %151
  %162 = load i32, i32* %4, align 4
  %163 = add nsw i32 %162, 1
  store i32 %163, i32* %4, align 4
  br label %143

164:                                              ; preds = %143
  ret i32 0
}